target datalayout = "e-m:e-p270:32:32-p271:32:32-p272:64:64-i64:64-i128:128-f80:128-n8:16:32:64-S128"
target triple = "x86_64-pc-linux-gnu"

%struct.quic_conn_id_st = type { i8, [20 x i8] }
%union.bio_addr_st = type { %struct.sockaddr_in6, [84 x i8] }
%struct.sockaddr_in6 = type { i16, i16, i32, %struct.in6_addr, i32 }
%struct.in6_addr = type { %union.anon }
%union.anon = type { [4 x i32] }
%struct.OSSL_TIME = type { i64 }
%struct.quic_channel_st = type { ptr, %struct.anon, %struct.anon.0, ptr, ptr, ptr, ptr, ptr, ptr, ptr, i64, %union.bio_addr_st, ptr, ptr, ptr, %struct.quic_txfc_st, %struct.quic_rxfc_st, [3 x %struct.quic_rxfc_st], %struct.quic_rxfc_st, %struct.quic_rxfc_st, %struct.quic_stream_map_st, %struct.ossl_statm_st, ptr, ptr, ptr, ptr, ptr, ptr, ptr, ptr, [3 x ptr], [3 x ptr], %struct.quic_conn_id_st, %struct.quic_conn_id_st, %struct.quic_conn_id_st, %struct.quic_conn_id_st, %struct.quic_conn_id_st, %struct.quic_conn_id_st, i64, i64, i64, i64, i64, i64, i64, i64, i64, i64, i8, i16, ptr, i64, i64, i64, i64, i64, i64, i64, i64, i64, i64, i64, i64, i64, %struct.quic_terminate_cause_st, %struct.OSSL_TIME, %struct.OSSL_TIME, %struct.OSSL_TIME, %struct.OSSL_TIME, %struct.OSSL_TIME, i64, i64, i64, ptr, ptr, i64, ptr }
%struct.anon = type { ptr, ptr }
%struct.anon.0 = type { ptr, ptr }
%struct.quic_txfc_st = type { ptr, i64, i64, i8 }
%struct.quic_rxfc_st = type { i64, i64, i64, i64, i64, i64, i64, %struct.OSSL_TIME, ptr, ptr, ptr, i8, i8, i8, i8 }
%struct.quic_stream_map_st = type { ptr, %struct.quic_stream_list_node_st, %struct.quic_stream_list_node_st, %struct.quic_stream_list_node_st, i64, i64, i64, i64, i64, ptr, ptr, ptr, ptr, ptr, i32 }
%struct.quic_stream_list_node_st = type { ptr, ptr }
%struct.ossl_statm_st = type { %struct.OSSL_TIME, %struct.OSSL_TIME, %struct.OSSL_TIME, %struct.OSSL_TIME, i8 }
%struct.quic_terminate_cause_st = type { i64, i64, ptr, i64, i8 }
%struct.wpacket_st = type { ptr, ptr, i64, i64, i64, ptr, i8 }
%struct.buf_mem_st = type { i64, ptr, i64, i64 }
%struct.ossl_quic_frame_new_conn_id_st = type { i64, i64, %struct.quic_conn_id_st, %struct.QUIC_STATELESS_RESET_TOKEN }
%struct.QUIC_STATELESS_RESET_TOKEN = type { [16 x i8] }

@.str = private unnamed_addr constant [35 x i8] c"../openssl/ssl/quic/quic_channel.c\00", align 1
@.str.2 = private unnamed_addr constant [33 x i8] c"zero length connection id in use\00", align 1
@__func__.ossl_quic_channel_on_new_conn_id = private unnamed_addr constant [33 x i8] c"ossl_quic_channel_on_new_conn_id\00", align 1
@.str.3 = private unnamed_addr constant [36 x i8] c"active_connection_id limit violated\00", align 1
@.str.4 = private unnamed_addr constant [38 x i8] c"retiring connection id limit violated\00", align 1
@.str.5 = private unnamed_addr constant [38 x i8] c"unable to store stateless reset token\00", align 1
@.str.110 = private unnamed_addr constant [41 x i8] c"internal error enqueueing retire conn id\00", align 1
@__func__.ch_enqueue_retire_conn_id = private unnamed_addr constant [26 x i8] c"ch_enqueue_retire_conn_id\00", align 1

; Function Attrs: nounwind uwtable
define internal i32 @ch_enqueue_retire_conn_id(ptr noundef %0, i64 noundef %1) #0 {
  %3 = alloca i32, align 4
  %4 = alloca ptr, align 8
  %5 = alloca i64, align 8
  %6 = alloca ptr, align 8
  %7 = alloca %struct.wpacket_st, align 8
  %8 = alloca i64, align 8
  %9 = alloca i32, align 4
  store ptr %0, ptr %4, align 8, !tbaa !3
  store i64 %1, ptr %5, align 8, !tbaa !47
  call void @llvm.lifetime.start.p0(i64 8, ptr %6) #9
  store ptr null, ptr %6, align 8, !tbaa !177
  call void @llvm.lifetime.start.p0(i64 56, ptr %7) #9
  call void @llvm.lifetime.start.p0(i64 8, ptr %8) #9
  %10 = load ptr, ptr %4, align 8, !tbaa !3
  %11 = getelementptr inbounds nuw %struct.quic_channel_st, ptr %10, i32 0, i32 6
  %12 = load ptr, ptr %11, align 8, !tbaa !46
  %13 = load ptr, ptr %4, align 8, !tbaa !3
  %14 = load i64, ptr %5, align 8, !tbaa !47
  %15 = call i32 @ossl_quic_srtm_remove(ptr noundef %12, ptr noundef %13, i64 noundef %14)
  %16 = call ptr @BUF_MEM_new()
  store ptr %16, ptr %6, align 8, !tbaa !177
  %17 = icmp eq ptr %16, null
  br i1 %17, label %18, label %19

18:                                               ; preds = %2
  br label %49

19:                                               ; preds = %2
  %20 = load ptr, ptr %6, align 8, !tbaa !177
  %21 = call i32 @WPACKET_init(ptr noundef %7, ptr noundef %20)
  %22 = icmp ne i32 %21, 0
  br i1 %22, label %24, label %23

23:                                               ; preds = %19
  br label %49

24:                                               ; preds = %19
  %25 = load i64, ptr %5, align 8, !tbaa !47
  %26 = call i32 @ossl_quic_wire_encode_frame_retire_conn_id(ptr noundef %7, i64 noundef %25)
  %27 = icmp ne i32 %26, 0
  br i1 %27, label %29, label %28

28:                                               ; preds = %24
  call void @WPACKET_cleanup(ptr noundef %7)
  br label %49

29:                                               ; preds = %24
  %30 = call i32 @WPACKET_finish(ptr noundef %7)
  %31 = call i32 @WPACKET_get_total_written(ptr noundef %7, ptr noundef %8)
  %32 = icmp ne i32 %31, 0
  br i1 %32, label %34, label %33

33:                                               ; preds = %29
  br label %49

34:                                               ; preds = %29
  %35 = load ptr, ptr %4, align 8, !tbaa !3
  %36 = getelementptr inbounds nuw %struct.quic_channel_st, ptr %35, i32 0, i32 14
  %37 = load ptr, ptr %36, align 8, !tbaa !76
  %38 = load ptr, ptr %6, align 8, !tbaa !177
  %39 = getelementptr inbounds nuw %struct.buf_mem_st, ptr %38, i32 0, i32 1
  %40 = load ptr, ptr %39, align 8, !tbaa !179
  %41 = load i64, ptr %8, align 8, !tbaa !47
  %42 = call ptr @ossl_quic_cfq_add_frame(ptr noundef %37, i32 noundef 1, i32 noundef 2, i64 noundef 25, i32 noundef 0, ptr noundef %40, i64 noundef %41, ptr noundef @free_frame_data, ptr noundef null)
  %43 = icmp eq ptr %42, null
  br i1 %43, label %44, label %45

44:                                               ; preds = %34
  br label %49

45:                                               ; preds = %34
  %46 = load ptr, ptr %6, align 8, !tbaa !177
  %47 = getelementptr inbounds nuw %struct.buf_mem_st, ptr %46, i32 0, i32 1
  store ptr null, ptr %47, align 8, !tbaa !179
  %48 = load ptr, ptr %6, align 8, !tbaa !177
  call void @BUF_MEM_free(ptr noundef %48)
  store i32 1, ptr %3, align 4
  store i32 1, ptr %9, align 4
  br label %52

49:                                               ; preds = %44, %33, %28, %23, %18
  %50 = load ptr, ptr %4, align 8, !tbaa !3
  call void @ossl_quic_channel_raise_protocol_error_loc(ptr noundef %50, i64 noundef 1, i64 noundef 24, ptr noundef @.str.110, ptr noundef null, ptr noundef @.str, i32 noundef 3281, ptr noundef @__func__.ch_enqueue_retire_conn_id)
  %51 = load ptr, ptr %6, align 8, !tbaa !177
  call void @BUF_MEM_free(ptr noundef %51)
  store i32 0, ptr %3, align 4
  store i32 1, ptr %9, align 4
  br label %52

52:                                               ; preds = %49, %45
  call void @llvm.lifetime.end.p0(i64 8, ptr %8) #9
  call void @llvm.lifetime.end.p0(i64 56, ptr %7) #9
  call void @llvm.lifetime.end.p0(i64 8, ptr %6) #9
  %53 = load i32, ptr %3, align 4
  ret i32 %53
}

; Function Attrs: nounwind uwtable
define i32 @ossl_quic_channel_is_active(ptr noundef %0) #0 {
  %2 = alloca ptr, align 8
  store ptr %0, ptr %2, align 8, !tbaa !3
  %3 = load ptr, ptr %2, align 8, !tbaa !3
  %4 = icmp ne ptr %3, null
  br i1 %4, label %5, label %12

5:                                                ; preds = %1
  %6 = load ptr, ptr %2, align 8, !tbaa !3
  %7 = getelementptr inbounds nuw %struct.quic_channel_st, ptr %6, i32 0, i32 72
  %8 = load i64, ptr %7, align 8
  %9 = and i64 %8, 7
  %10 = trunc i64 %9 to i32
  %11 = icmp eq i32 %10, 1
  br label %12

12:                                               ; preds = %5, %1
  %13 = phi i1 [ false, %1 ], [ %11, %5 ]
  %14 = zext i1 %13 to i32
  ret i32 %14
}

; Function Attrs: nounwind uwtable
define void @ossl_quic_channel_on_new_conn_id(ptr noundef %0, ptr noundef %1) #0 {
  %3 = alloca ptr, align 8
  %4 = alloca ptr, align 8
  %5 = alloca i64, align 8
  %6 = alloca i64, align 8
  %7 = alloca i32, align 4
  store ptr %0, ptr %3, align 8, !tbaa !3
  store ptr %1, ptr %4, align 8, !tbaa !242
  call void @llvm.lifetime.start.p0(i64 8, ptr %5) #9
  %8 = load ptr, ptr %3, align 8, !tbaa !3
  %9 = getelementptr inbounds nuw %struct.quic_channel_st, ptr %8, i32 0, i32 38
  %10 = load i64, ptr %9, align 8, !tbaa !244
  store i64 %10, ptr %5, align 8, !tbaa !47
  call void @llvm.lifetime.start.p0(i64 8, ptr %6) #9
  %11 = load ptr, ptr %3, align 8, !tbaa !3
  %12 = getelementptr inbounds nuw %struct.quic_channel_st, ptr %11, i32 0, i32 39
  %13 = load i64, ptr %12, align 8, !tbaa !245
  store i64 %13, ptr %6, align 8, !tbaa !47
  %14 = load ptr, ptr %3, align 8, !tbaa !3
  %15 = call i32 @ossl_quic_channel_is_active(ptr noundef %14)
  %16 = icmp ne i32 %15, 0
  br i1 %16, label %18, label %17

17:                                               ; preds = %2
  store i32 1, ptr %7, align 4
  br label %116

18:                                               ; preds = %2
  %19 = load ptr, ptr %3, align 8, !tbaa !3
  %20 = getelementptr inbounds nuw %struct.quic_channel_st, ptr %19, i32 0, i32 37
  %21 = getelementptr inbounds nuw %struct.quic_conn_id_st, ptr %20, i32 0, i32 0
  %22 = load i8, ptr %21, align 1, !tbaa !246
  %23 = zext i8 %22 to i32
  %24 = icmp eq i32 %23, 0
  br i1 %24, label %25, label %27

25:                                               ; preds = %18
  %26 = load ptr, ptr %3, align 8, !tbaa !3
  call void @ossl_quic_channel_raise_protocol_error_loc(ptr noundef %26, i64 noundef 10, i64 noundef 24, ptr noundef @.str.2, ptr noundef null, ptr noundef @.str, i32 noundef 3301, ptr noundef @__func__.ossl_quic_channel_on_new_conn_id)
  store i32 1, ptr %7, align 4
  br label %116

27:                                               ; preds = %18
  %28 = load ptr, ptr %4, align 8, !tbaa !242
  %29 = getelementptr inbounds nuw %struct.ossl_quic_frame_new_conn_id_st, ptr %28, i32 0, i32 0
  %30 = load i64, ptr %29, align 8, !tbaa !247
  %31 = load i64, ptr %5, align 8, !tbaa !47
  %32 = icmp ugt i64 %30, %31
  br i1 %32, label %33, label %37

33:                                               ; preds = %27
  %34 = load ptr, ptr %4, align 8, !tbaa !242
  %35 = getelementptr inbounds nuw %struct.ossl_quic_frame_new_conn_id_st, ptr %34, i32 0, i32 0
  %36 = load i64, ptr %35, align 8, !tbaa !247
  store i64 %36, ptr %5, align 8, !tbaa !47
  br label %37

37:                                               ; preds = %33, %27
  %38 = load ptr, ptr %4, align 8, !tbaa !242
  %39 = getelementptr inbounds nuw %struct.ossl_quic_frame_new_conn_id_st, ptr %38, i32 0, i32 1
  %40 = load i64, ptr %39, align 8, !tbaa !249
  %41 = load i64, ptr %6, align 8, !tbaa !47
  %42 = icmp ugt i64 %40, %41
  br i1 %42, label %43, label %47

43:                                               ; preds = %37
  %44 = load ptr, ptr %4, align 8, !tbaa !242
  %45 = getelementptr inbounds nuw %struct.ossl_quic_frame_new_conn_id_st, ptr %44, i32 0, i32 1
  %46 = load i64, ptr %45, align 8, !tbaa !249
  store i64 %46, ptr %6, align 8, !tbaa !47
  br label %47

47:                                               ; preds = %43, %37
  %48 = load i64, ptr %5, align 8, !tbaa !47
  %49 = load i64, ptr %6, align 8, !tbaa !47
  %50 = sub i64 %48, %49
  %51 = icmp ugt i64 %50, 1
  br i1 %51, label %52, label %54

52:                                               ; preds = %47
  %53 = load ptr, ptr %3, align 8, !tbaa !3
  call void @ossl_quic_channel_raise_protocol_error_loc(ptr noundef %53, i64 noundef 9, i64 noundef 24, ptr noundef @.str.3, ptr noundef null, ptr noundef @.str, i32 noundef 3325, ptr noundef @__func__.ossl_quic_channel_on_new_conn_id)
  store i32 1, ptr %7, align 4
  br label %116

54:                                               ; preds = %47
  %55 = load i64, ptr %6, align 8, !tbaa !47
  %56 = load ptr, ptr %3, align 8, !tbaa !3
  %57 = getelementptr inbounds nuw %struct.quic_channel_st, ptr %56, i32 0, i32 39
  %58 = load i64, ptr %57, align 8, !tbaa !245
  %59 = sub i64 %55, %58
  %60 = icmp ugt i64 %59, 10
  br i1 %60, label %61, label %63

61:                                               ; preds = %54
  %62 = load ptr, ptr %3, align 8, !tbaa !3
  call void @ossl_quic_channel_raise_protocol_error_loc(ptr noundef %62, i64 noundef 9, i64 noundef 24, ptr noundef @.str.4, ptr noundef null, ptr noundef @.str, i32 noundef 3348, ptr noundef @__func__.ossl_quic_channel_on_new_conn_id)
  store i32 1, ptr %7, align 4
  br label %116

63:                                               ; preds = %54
  %64 = load i64, ptr %5, align 8, !tbaa !47
  %65 = load ptr, ptr %3, align 8, !tbaa !3
  %66 = getelementptr inbounds nuw %struct.quic_channel_st, ptr %65, i32 0, i32 38
  %67 = load i64, ptr %66, align 8, !tbaa !244
  %68 = icmp ugt i64 %64, %67
  br i1 %68, label %69, label %95

69:                                               ; preds = %63
  %70 = load ptr, ptr %3, align 8, !tbaa !3
  %71 = getelementptr inbounds nuw %struct.quic_channel_st, ptr %70, i32 0, i32 6
  %72 = load ptr, ptr %71, align 8, !tbaa !46
  %73 = load ptr, ptr %3, align 8, !tbaa !3
  %74 = load i64, ptr %5, align 8, !tbaa !47
  %75 = load ptr, ptr %4, align 8, !tbaa !242
  %76 = getelementptr inbounds nuw %struct.ossl_quic_frame_new_conn_id_st, ptr %75, i32 0, i32 3
  %77 = call i32 @ossl_quic_srtm_add(ptr noundef %72, ptr noundef %73, i64 noundef %74, ptr noundef %76)
  %78 = icmp ne i32 %77, 0
  br i1 %78, label %81, label %79

79:                                               ; preds = %69
  %80 = load ptr, ptr %3, align 8, !tbaa !3
  call void @ossl_quic_channel_raise_protocol_error_loc(ptr noundef %80, i64 noundef 9, i64 noundef 24, ptr noundef @.str.5, ptr noundef null, ptr noundef @.str, i32 noundef 3360, ptr noundef @__func__.ossl_quic_channel_on_new_conn_id)
  store i32 1, ptr %7, align 4
  br label %116

81:                                               ; preds = %69
  %82 = load i64, ptr %5, align 8, !tbaa !47
  %83 = load ptr, ptr %3, align 8, !tbaa !3
  %84 = getelementptr inbounds nuw %struct.quic_channel_st, ptr %83, i32 0, i32 38
  store i64 %82, ptr %84, align 8, !tbaa !244
  %85 = load ptr, ptr %3, align 8, !tbaa !3
  %86 = getelementptr inbounds nuw %struct.quic_channel_st, ptr %85, i32 0, i32 37
  %87 = load ptr, ptr %4, align 8, !tbaa !242
  %88 = getelementptr inbounds nuw %struct.ossl_quic_frame_new_conn_id_st, ptr %87, i32 0, i32 2
  call void @llvm.memcpy.p0.p0.i64(ptr align 1 %86, ptr align 8 %88, i64 21, i1 false), !tbaa.struct !88
  %89 = load ptr, ptr %3, align 8, !tbaa !3
  %90 = getelementptr inbounds nuw %struct.quic_channel_st, ptr %89, i32 0, i32 12
  %91 = load ptr, ptr %90, align 8, !tbaa !112
  %92 = load ptr, ptr %3, align 8, !tbaa !3
  %93 = getelementptr inbounds nuw %struct.quic_channel_st, ptr %92, i32 0, i32 37
  %94 = call i32 @ossl_quic_tx_packetiser_set_cur_dcid(ptr noundef %91, ptr noundef %93)
  br label %95

95:                                               ; preds = %81, %63
  br label %96

96:                                               ; preds = %110, %95
  %97 = load i64, ptr %6, align 8, !tbaa !47
  %98 = load ptr, ptr %3, align 8, !tbaa !3
  %99 = getelementptr inbounds nuw %struct.quic_channel_st, ptr %98, i32 0, i32 39
  %100 = load i64, ptr %99, align 8, !tbaa !245
  %101 = icmp ugt i64 %97, %100
  br i1 %101, label %102, label %115

102:                                              ; preds = %96
  %103 = load ptr, ptr %3, align 8, !tbaa !3
  %104 = load ptr, ptr %3, align 8, !tbaa !3
  %105 = getelementptr inbounds nuw %struct.quic_channel_st, ptr %104, i32 0, i32 39
  %106 = load i64, ptr %105, align 8, !tbaa !245
  %107 = call i32 @ch_enqueue_retire_conn_id(ptr noundef %103, i64 noundef %106)
  %108 = icmp ne i32 %107, 0
  br i1 %108, label %110, label %109

109:                                              ; preds = %102
  br label %115

110:                                              ; preds = %102
  %111 = load ptr, ptr %3, align 8, !tbaa !3
  %112 = getelementptr inbounds nuw %struct.quic_channel_st, ptr %111, i32 0, i32 39
  %113 = load i64, ptr %112, align 8, !tbaa !245
  %114 = add i64 %113, 1
  store i64 %114, ptr %112, align 8, !tbaa !245
  br label %96, !llvm.loop !250

115:                                              ; preds = %109, %96
  store i32 0, ptr %7, align 4
  br label %116

116:                                              ; preds = %115, %79, %61, %52, %25, %17
  call void @llvm.lifetime.end.p0(i64 8, ptr %6) #9
  call void @llvm.lifetime.end.p0(i64 8, ptr %5) #9
  %117 = load i32, ptr %7, align 4
  switch i32 %117, label %119 [
    i32 0, label %118
    i32 1, label %118
  ]

118:                                              ; preds = %116, %116
  ret void

119:                                              ; preds = %116
  unreachable
}