; Function Attrs: nounwind uwtable
define void @ossl_quic_channel_on_new_conn_id(ptr noundef %0, ptr noundef %1) local_unnamed_addr #0 {
ossl_quic_channel_is_active.exit:
  %2 = alloca %struct.wpacket_st, align 8
  %3 = alloca i64, align 8
  %4 = getelementptr inbounds nuw i8, ptr %0, i64 1272
  %5 = load i64, ptr %4, align 8, !tbaa !238
  %6 = getelementptr inbounds nuw i8, ptr %0, i64 1280
  %7 = load i64, ptr %6, align 8, !tbaa !239
  %8 = getelementptr inbounds nuw i8, ptr %0, i64 1568
  %9 = load i64, ptr %8, align 8
  %10 = and i64 %9, 7
  %.not = icmp eq i64 %10, 1
  br i1 %.not, label %11, label %.loopexit

11:                                               ; preds = %ossl_quic_channel_is_active.exit
  %12 = getelementptr inbounds nuw i8, ptr %0, i64 1249
  %13 = load i8, ptr %12, align 1, !tbaa !240
  %14 = icmp eq i8 %13, 0
  br i1 %14, label %15, label %16

15:                                               ; preds = %11
  tail call void @ossl_quic_channel_raise_protocol_error_loc(ptr noundef nonnull %0, i64 noundef 10, i64 noundef 24, ptr noundef nonnull @.str.2, ptr noundef null, ptr noundef nonnull @.str, i32 noundef 3301, ptr noundef nonnull @__func__.ossl_quic_channel_on_new_conn_id)
  br label %.loopexit

16:                                               ; preds = %11
  %17 = load i64, ptr %1, align 8, !tbaa !241
  %18 = icmp ugt i64 %17, %5
  %spec.select = tail call i64 @llvm.umax.i64(i64 %17, i64 %5)
  %19 = getelementptr inbounds nuw i8, ptr %1, i64 8
  %20 = load i64, ptr %19, align 8, !tbaa !243
  %.0 = tail call i64 @llvm.umax.i64(i64 %20, i64 %7)
  %21 = sub i64 %spec.select, %.0
  %22 = icmp ugt i64 %21, 1
  br i1 %22, label %23, label %24

23:                                               ; preds = %16
  tail call void @ossl_quic_channel_raise_protocol_error_loc(ptr noundef nonnull %0, i64 noundef 9, i64 noundef 24, ptr noundef nonnull @.str.3, ptr noundef null, ptr noundef nonnull @.str, i32 noundef 3325, ptr noundef nonnull @__func__.ossl_quic_channel_on_new_conn_id)
  br label %.loopexit

24:                                               ; preds = %16
  %25 = sub i64 %.0, %7
  %26 = icmp ugt i64 %25, 10
  br i1 %26, label %27, label %28

27:                                               ; preds = %24
  tail call void @ossl_quic_channel_raise_protocol_error_loc(ptr noundef nonnull %0, i64 noundef 9, i64 noundef 24, ptr noundef nonnull @.str.4, ptr noundef null, ptr noundef nonnull @.str, i32 noundef 3348, ptr noundef nonnull @__func__.ossl_quic_channel_on_new_conn_id)
  br label %.loopexit

28:                                               ; preds = %24
  br i1 %18, label %29, label %40

29:                                               ; preds = %28
  %30 = getelementptr inbounds nuw i8, ptr %0, i64 64
  %31 = load ptr, ptr %30, align 8, !tbaa !45
  %32 = getelementptr inbounds nuw i8, ptr %1, i64 37
  %33 = tail call i32 @ossl_quic_srtm_add(ptr noundef %31, ptr noundef nonnull %0, i64 noundef %17, ptr noundef nonnull %32) #15
  %.not40 = icmp eq i32 %33, 0
  br i1 %.not40, label %34, label %35

34:                                               ; preds = %29
  tail call void @ossl_quic_channel_raise_protocol_error_loc(ptr noundef nonnull %0, i64 noundef 9, i64 noundef 24, ptr noundef nonnull @.str.5, ptr noundef null, ptr noundef nonnull @.str, i32 noundef 3360, ptr noundef nonnull @__func__.ossl_quic_channel_on_new_conn_id)
  br label %.loopexit

35:                                               ; preds = %29
  store i64 %17, ptr %4, align 8, !tbaa !238
  %36 = getelementptr inbounds nuw i8, ptr %1, i64 16
  tail call void @llvm.memcpy.p0.p0.i64(ptr noundef nonnull align 1 dereferenceable(21) %12, ptr noundef nonnull align 8 dereferenceable(21) %36, i64 21, i1 false), !tbaa.struct !85
  %37 = getelementptr inbounds nuw i8, ptr %0, i64 216
  %38 = load ptr, ptr %37, align 8, !tbaa !109
  %39 = tail call i32 @ossl_quic_tx_packetiser_set_cur_dcid(ptr noundef %38, ptr noundef nonnull %12) #15
  %.pre = load i64, ptr %6, align 8, !tbaa !239
  br label %40

40:                                               ; preds = %35, %28
  %41 = phi i64 [ %.pre, %35 ], [ %7, %28 ]
  %42 = icmp ugt i64 %.0, %41
  br i1 %42, label %.lr.ph, label %.loopexit

.lr.ph:                                           ; preds = %40
  %43 = getelementptr inbounds nuw i8, ptr %0, i64 64
  %44 = getelementptr inbounds nuw i8, ptr %0, i64 232
  br label %45

45:                                               ; preds = %.lr.ph, %66
  %46 = phi i64 [ %41, %.lr.ph ], [ %68, %66 ]
  call void @llvm.lifetime.start.p0(i64 56, ptr nonnull %2) #15
  call void @llvm.lifetime.start.p0(i64 8, ptr nonnull %3) #15
  %47 = load ptr, ptr %43, align 8, !tbaa !45
  %48 = call i32 @ossl_quic_srtm_remove(ptr noundef %47, ptr noundef nonnull %0, i64 noundef %46) #15
  %49 = call ptr @BUF_MEM_new() #15
  %50 = icmp eq ptr %49, null
  br i1 %50, label %ch_enqueue_retire_conn_id.exit.thread, label %51

51:                                               ; preds = %45
  %52 = call i32 @WPACKET_init(ptr noundef nonnull %2, ptr noundef nonnull %49) #15
  %.not.i42 = icmp eq i32 %52, 0
  br i1 %.not.i42, label %ch_enqueue_retire_conn_id.exit.thread, label %53

53:                                               ; preds = %51
  %54 = call i32 @ossl_quic_wire_encode_frame_retire_conn_id(ptr noundef nonnull %2, i64 noundef %46) #15
  %.not12.i = icmp eq i32 %54, 0
  br i1 %.not12.i, label %55, label %56

55:                                               ; preds = %53
  call void @WPACKET_cleanup(ptr noundef nonnull %2) #15
  br label %ch_enqueue_retire_conn_id.exit.thread

56:                                               ; preds = %53
  %57 = call i32 @WPACKET_finish(ptr noundef nonnull %2) #15
  %58 = call i32 @WPACKET_get_total_written(ptr noundef nonnull %2, ptr noundef nonnull %3) #15
  %.not13.i = icmp eq i32 %58, 0
  br i1 %.not13.i, label %ch_enqueue_retire_conn_id.exit.thread, label %59

59:                                               ; preds = %56
  %60 = load ptr, ptr %44, align 8, !tbaa !74
  %61 = getelementptr inbounds nuw i8, ptr %49, i64 8
  %62 = load ptr, ptr %61, align 8, !tbaa !173
  %63 = load i64, ptr %3, align 8, !tbaa !71
  %64 = call ptr @ossl_quic_cfq_add_frame(ptr noundef %60, i32 noundef 1, i32 noundef 2, i64 noundef 25, i32 noundef 0, ptr noundef %62, i64 noundef %63, ptr noundef nonnull @free_frame_data, ptr noundef null) #15
  %65 = icmp eq ptr %64, null
  br i1 %65, label %ch_enqueue_retire_conn_id.exit.thread, label %66

ch_enqueue_retire_conn_id.exit.thread:            ; preds = %45, %51, %56, %59, %55
  call void @ossl_quic_channel_raise_protocol_error_loc(ptr noundef nonnull %0, i64 noundef 1, i64 noundef 24, ptr noundef nonnull @.str.110, ptr noundef null, ptr noundef nonnull @.str, i32 noundef 3281, ptr noundef nonnull @__func__.ch_enqueue_retire_conn_id)
  call void @BUF_MEM_free(ptr noundef %49) #15
  call void @llvm.lifetime.end.p0(i64 8, ptr nonnull %3) #15
  call void @llvm.lifetime.end.p0(i64 56, ptr nonnull %2) #15
  br label %.loopexit

66:                                               ; preds = %59
  store ptr null, ptr %61, align 8, !tbaa !173
  call void @BUF_MEM_free(ptr noundef nonnull %49) #15
  call void @llvm.lifetime.end.p0(i64 8, ptr nonnull %3) #15
  call void @llvm.lifetime.end.p0(i64 56, ptr nonnull %2) #15
  %67 = load i64, ptr %6, align 8, !tbaa !239
  %68 = add i64 %67, 1
  store i64 %68, ptr %6, align 8, !tbaa !239
  %69 = icmp ugt i64 %.0, %68
  br i1 %69, label %45, label %.loopexit, !llvm.loop !244

.loopexit:                                        ; preds = %66, %40, %ch_enqueue_retire_conn_id.exit.thread, %ossl_quic_channel_is_active.exit, %34, %27, %23, %15
  ret void
}